target datalayout = "e-m:e-p270:32:32-p271:32:32-p272:64:64-i64:64-i128:128-f80:128-n8:16:32:64-S128"
target triple = "x86_64-pc-linux-gnu"

%struct.sp_int = type { i16, i16, [129 x i64] }

; Function Attrs: nounwind uwtable
define i32 @sp_count_bits(ptr noundef %0) #0 {
  %2 = alloca ptr, align 8
  %3 = alloca i32, align 4
  %4 = alloca i64, align 8
  store ptr %0, ptr %2, align 8, !tbaa !3
  call void @llvm.lifetime.start.p0(i64 4, ptr %3) #8
  store i32 -1, ptr %3, align 4, !tbaa !8
  %5 = load ptr, ptr %2, align 8, !tbaa !3
  %6 = icmp ne ptr %5, null
  br i1 %6, label %7, label %36

7:                                                ; preds = %1
  %8 = load ptr, ptr %2, align 8, !tbaa !3
  %9 = getelementptr inbounds nuw %struct.sp_int, ptr %8, i32 0, i32 0
  %10 = load i16, ptr %9, align 8, !tbaa !15
  %11 = zext i16 %10 to i32
  %12 = icmp sgt i32 %11, 0
  br i1 %12, label %13, label %36

13:                                               ; preds = %7
  %14 = load ptr, ptr %2, align 8, !tbaa !3
  %15 = getelementptr inbounds nuw %struct.sp_int, ptr %14, i32 0, i32 0
  %16 = load i16, ptr %15, align 8, !tbaa !15
  %17 = zext i16 %16 to i32
  %18 = sub nsw i32 %17, 1
  store i32 %18, ptr %3, align 4, !tbaa !8
  br label %19

19:                                               ; preds = %32, %13
  %20 = load i32, ptr %3, align 4, !tbaa !8
  %21 = icmp sge i32 %20, 0
  br i1 %21, label %22, label %30

22:                                               ; preds = %19
  %23 = load ptr, ptr %2, align 8, !tbaa !3
  %24 = getelementptr inbounds nuw %struct.sp_int, ptr %23, i32 0, i32 2
  %25 = load i32, ptr %3, align 4, !tbaa !8
  %26 = sext i32 %25 to i64
  %27 = getelementptr inbounds [129 x i64], ptr %24, i64 0, i64 %26
  %28 = load i64, ptr %27, align 8, !tbaa !16
  %29 = icmp eq i64 %28, 0
  br label %30

30:                                               ; preds = %22, %19
  %31 = phi i1 [ false, %19 ], [ %29, %22 ]
  br i1 %31, label %32, label %35

32:                                               ; preds = %30
  %33 = load i32, ptr %3, align 4, !tbaa !8
  %34 = add nsw i32 %33, -1
  store i32 %34, ptr %3, align 4, !tbaa !8
  br label %19, !llvm.loop !37

35:                                               ; preds = %30
  br label %36

36:                                               ; preds = %35, %7, %1
  %37 = load i32, ptr %3, align 4, !tbaa !8
  %38 = icmp slt i32 %37, 0
  br i1 %38, label %39, label %40

39:                                               ; preds = %36
  store i32 0, ptr %3, align 4, !tbaa !8
  br label %75

40:                                               ; preds = %36
  call void @llvm.lifetime.start.p0(i64 8, ptr %4) #8
  %41 = load ptr, ptr %2, align 8, !tbaa !3
  %42 = getelementptr inbounds nuw %struct.sp_int, ptr %41, i32 0, i32 2
  %43 = load i32, ptr %3, align 4, !tbaa !8
  %44 = sext i32 %43 to i64
  %45 = getelementptr inbounds [129 x i64], ptr %42, i64 0, i64 %44
  %46 = load i64, ptr %45, align 8, !tbaa !16
  store i64 %46, ptr %4, align 8, !tbaa !16
  %47 = load i32, ptr %3, align 4, !tbaa !8
  %48 = mul nsw i32 %47, 64
  store i32 %48, ptr %3, align 4, !tbaa !8
  %49 = load i64, ptr %4, align 8, !tbaa !16
  %50 = icmp ugt i64 %49, 4294967295
  br i1 %50, label %51, label %64

51:                                               ; preds = %40
  %52 = load i32, ptr %3, align 4, !tbaa !8
  %53 = add nsw i32 %52, 64
  store i32 %53, ptr %3, align 4, !tbaa !8
  br label %54

54:                                               ; preds = %58, %51
  %55 = load i64, ptr %4, align 8, !tbaa !16
  %56 = and i64 %55, -9223372036854775808
  %57 = icmp eq i64 %56, 0
  br i1 %57, label %58, label %63

58:                                               ; preds = %54
  %59 = load i32, ptr %3, align 4, !tbaa !8
  %60 = add nsw i32 %59, -1
  store i32 %60, ptr %3, align 4, !tbaa !8
  %61 = load i64, ptr %4, align 8, !tbaa !16
  %62 = shl i64 %61, 1
  store i64 %62, ptr %4, align 8, !tbaa !16
  br label %54, !llvm.loop !38

63:                                               ; preds = %54
  br label %74

64:                                               ; preds = %40
  br label %65

65:                                               ; preds = %68, %64
  %66 = load i64, ptr %4, align 8, !tbaa !16
  %67 = icmp ne i64 %66, 0
  br i1 %67, label %68, label %73

68:                                               ; preds = %65
  %69 = load i32, ptr %3, align 4, !tbaa !8
  %70 = add nsw i32 %69, 1
  store i32 %70, ptr %3, align 4, !tbaa !8
  %71 = load i64, ptr %4, align 8, !tbaa !16
  %72 = lshr i64 %71, 1
  store i64 %72, ptr %4, align 8, !tbaa !16
  br label %65, !llvm.loop !39

73:                                               ; preds = %65
  br label %74

74:                                               ; preds = %73, %63
  call void @llvm.lifetime.end.p0(i64 8, ptr %4) #8
  br label %75

75:                                               ; preds = %74, %39
  %76 = load i32, ptr %3, align 4, !tbaa !8
  call void @llvm.lifetime.end.p0(i64 4, ptr %3) #8
  ret i32 %76
}