; Function Attrs: nofree norecurse nosync nounwind memory(argmem: read) uwtable
define i32 @sp_count_bits(ptr noundef readonly captures(address_is_null) %0) local_unnamed_addr #9 {
  %.not = icmp eq ptr %0, null
  br i1 %.not, label %.critedge.thread, label %2

2:                                                ; preds = %1
  %3 = load i16, ptr %0, align 8, !tbaa !12
  %.not25 = icmp eq i16 %3, 0
  br i1 %.not25, label %.critedge.thread, label %4

4:                                                ; preds = %2
  %5 = getelementptr inbounds nuw i8, ptr %0, i64 8
  %6 = zext i16 %3 to i64
  br label %7

7:                                                ; preds = %9, %4
  %indvars.iv = phi i64 [ %indvars.iv.next, %9 ], [ %6, %4 ]
  %8 = icmp sgt i64 %indvars.iv, 0
  br i1 %8, label %9, label %.critedge.thread

9:                                                ; preds = %7
  %indvars.iv.next = add nsw i64 %indvars.iv, -1
  %10 = getelementptr inbounds nuw [129 x i64], ptr %5, i64 0, i64 %indvars.iv.next
  %11 = load i64, ptr %10, align 8, !tbaa !8
  %12 = icmp eq i64 %11, 0
  br i1 %12, label %7, label %.critedge, !llvm.loop !22

.critedge:                                        ; preds = %9
  %13 = trunc nsw i64 %indvars.iv.next to i32
  %14 = and i64 %indvars.iv.next, 4294967295
  %15 = getelementptr inbounds nuw [129 x i64], ptr %5, i64 0, i64 %14
  %16 = load i64, ptr %15, align 8, !tbaa !8
  %17 = shl nuw nsw i32 %13, 6
  %18 = icmp ugt i64 %16, 4294967295
  br i1 %18, label %22, label %.preheader

.preheader:                                       ; preds = %.critedge
  %.not2631 = icmp eq i64 %16, 0
  br i1 %.not2631, label %.critedge.thread, label %.lr.ph.preheader

.lr.ph.preheader:                                 ; preds = %.preheader
  %19 = tail call range(i64 32, 65) i64 @llvm.ctlz.i64(i64 %16, i1 true)
  %20 = trunc nuw nsw i64 %19 to i32
  %reass.sub = sub nsw i32 %17, %20
  %21 = add i32 %reass.sub, 64
  br label %.critedge.thread

22:                                               ; preds = %.critedge
  %23 = add nuw nsw i32 %17, 64
  %24 = icmp sgt i64 %16, -1
  br i1 %24, label %.lr.ph36, label %.critedge.thread

.lr.ph36:                                         ; preds = %22, %.lr.ph36
  %.035 = phi i64 [ %26, %.lr.ph36 ], [ %16, %22 ]
  %.334 = phi i32 [ %25, %.lr.ph36 ], [ %23, %22 ]
  %25 = add nsw i32 %.334, -1
  %26 = shl nuw i64 %.035, 1
  %27 = icmp sgt i64 %26, -1
  br i1 %27, label %.lr.ph36, label %.critedge.thread, !llvm.loop !23

.critedge.thread:                                 ; preds = %7, %.lr.ph36, %.lr.ph.preheader, %.preheader, %22, %1, %2
  %.2 = phi i32 [ 0, %2 ], [ 0, %1 ], [ %23, %22 ], [ %17, %.preheader ], [ %21, %.lr.ph.preheader ], [ %25, %.lr.ph36 ], [ 0, %7 ]
  ret i32 %.2
}